-----BEGIN CERTIFICATE-----
MIIGVDCCBDygAwIBAgICEAMwDQYJKoZIhvcNAQENBQAwbTELMAkGA1UEBhMCVVMx
EjAQBgNVBAgMCU1pbm5lc290YTEZMBcGA1UECgwQQ29zb2NrICYgRGV2aWNlczEv
MC0GA1UEAwwmQ29zb2NrIFRlc3QgSW50ZXJtZWRpYXRlIENlcnRpZmljYXRlIDEw
HhcNMjAxMjAzMTg0ODM2WhcNMzAxMjAzMTg0ODM2WjBlMQswCQYDVQQGEwJVUzES
MBAGA1UECAwJTWlubmVzb3RhMRkwFwYDVQQKDBBDb3NvY2sgJiBEZXZpY2VzMScw
JQYDVQQDDB5Db3NvY2sgVGVzdCBMZWFmIENlcnRpZmljYXRlIEIwggIiMA0GCSqG
SIb3DQEBAQUAA4ICDwAwggIKAoICAQC4gNMUfJCEd3sx4RSmbjaTs89n4h00P6XU
pRzJaPsBjGmtEpHGb0Nl/5Nbng6Dneiohcl3fh4N0xdeco3I/fSwlcwKXEzwM0mU
UUlSv7Ay76TiFbbHJ17quDtXqXlcJeTgamAryv/ZJWZyCc24Gq+lsKpYKDC/e6Mw
HWsCBLeJSr81rCcoGaCwpy3vc3NOsX+LzJfgshipTUygW8eGEYUXyDT2CADSJjv2
hoYNdXIMXBrKlcihVCgrks4c9eg4JUd0RmiCE4B+6uF8FDIdimdcHevjii/vv4si
N4ZNpOkbyPQMTrxtp+LJWRo9Ud5jKJZU+25VwmKJZnSD70pvOKBIgf95jJOG9VT7
1rBNbszdkp20KlH/KI1/ptK3nepmMfbt56kwFmGnM29bWWbMbxqTlnNYjULDLC1y
huGiZHjMTQFGEKBGIoA7ASXFqKEulJyocj6zZ2H1sKaldngvuaW+3jlpSxpW/RBa
KjLnapl2q4J/hAzSs8b0kke6630Ob28MrgRrD3We3I5BxStRe2MEgwn1keR0X731
UptbALr65kZiDQnx1e6Ll2nAHe6bWbgNgBV7hFAunN9ta9tJ90qMnAO03j+Y21B9
UelXUGmLdVGLGtNmNm6oPAupBlrtp1dKNsc2CvZCWjScNBVJmLeiCGGiroPr/3a7
kRYNFVY+KwIDAQABo4IBBDCCAQAwCQYDVR0TBAIwADAdBgNVHQ4EFgQU5MSeShep
pYE1gcybQFHocSwM5WowgaQGA1UdIwSBnDCBmYAUmBpayzhEau2Z1pgEkexDLOok
wZmhfaR7MHkxCzAJBgNVBAYTAlVTMRIwEAYDVQQIDAlNaW5uZXNvdGExFDASBgNV
BAcMC01pbm5lYXBvbGlzMRkwFwYDVQQKDBBDb3NvY2sgJiBEZXZpY2VzMSUwIwYD
VQQDDBxDb3NvY2sgVGVzdCBSb290IENlcnRpZmljYXRlggIQADAOBgNVHQ8BAf8E
BAMCBeAwHQYDVR0lBBYwFAYIKwYBBQUHAwIGCCsGAQUFBwMBMA0GCSqGSIb3DQEB
DQUAA4ICAQAFg13zgdn/hhgojlqEoApqqL5CwzMMLnXWTzBMYtuGkECytGABlqJK
SSQWhWBgmOnFxJmUVTLzA6HHEIvM5sOEZnP2kv0rDwo4wwzAQgi82LPYw//QOzkt
OVB79arTEFuLmrF2E16NcEP4hTO77wcWF42GyGRa63izqmk2W26Ux5T4MfCefcSL
CFnRRBZ0xEDI5p+SmAuoYlxbErdb9ZhxtV5AYoZlYc7daRP8nuXQiVeCN8/joAwB
BcTpkt6b0Wg++Sc98NOjpXMBMZNmck4OJ6IIhKqiqH7Ky7UlBPqsMBFAL2/GmljT
EcXXl3VpZrPgCEccHGqE8OFfRSmk3F+e/L1MGEi1RnqiKESVm1/Xi4/P9rqXtEyn
frGXfNxBIzj6maXmQRYJhC+TOU0ef/MSRUbfiGza1BMz18N/d3DWW+QCdG9CJM7d
tSTKoZ52sYOHGAS35235jl/xGUG0tDuzD970GmDAb6E3CpShDLDznarQ1dpnI229
uDZ0bQExte8Nm402iHL+Dm57mOf6JFdEqfVHFnXVkCv8LdJ6TDKCWEw9kZ63tpLY
HxLkSOPwNxjtIDsZwZ0+yflBLtbKIrrrfNdp7jV1RleAW3CFvD4BhmCh0zYP6NRV
5Ledrew1kDt9CmWYQJnDWuQxIxzHxo/IiYdJy3DbYwDHwaYGJJu5lA==
-----END CERTIFICATE-----
Certificate:
    Data:
        Version: 3 (0x2)
        Serial Number: 4096 (0x1000)
        Signature Algorithm: sha512WithRSAEncryption
        Issuer: C=US, ST=Minnesota, L=Minneapolis, O=Cosock & Devices, CN=Cosock Test Root Certificate
        Validity
            Not Before: Dec  3 18:48:36 2020 GMT
            Not After : Dec  3 18:48:36 2030 GMT
        Subject: C=US, ST=Minnesota, O=Cosock & Devices, CN=Cosock Test Intermediate Certificate 1
        Subject Public Key Info:
            Public Key Algorithm: rsaEncryption
                RSA Public-Key: (4096 bit)
                Modulus:
                    00:f1:8f:c4:39:41:ec:2d:06:0d:a0:ec:48:9c:50:
                    11:73:23:77:21:f8:71:6e:36:2f:90:27:11:6a:8c:
                    76:e3:ca:ed:a2:89:5c:62:d3:b5:94:11:4d:c4:be:
                    80:59:01:04:30:61:04:56:20:01:c7:71:0c:d4:d8:
                    1f:f1:8b:a9:c6:3f:ea:6f:23:e9:80:c6:86:b7:5b:
                    8e:81:0b:3f:15:ba:f8:ae:36:6f:8a:35:99:01:46:
                    10:da:41:e9:fc:63:a6:38:67:fd:e1:5f:11:e1:37:
                    27:9b:ac:41:4e:35:50:95:fe:a5:53:f2:1f:c8:b9:
                    b6:67:10:e8:bf:9a:b5:2c:c3:1d:0b:de:99:45:0a:
                    cb:99:ab:18:4c:0e:b5:01:71:27:df:00:d8:15:26:
                    37:f2:6c:a3:32:fe:c4:8d:4a:fd:fc:04:a4:96:4f:
                    11:38:95:0f:ae:97:d6:55:1e:be:bb:2b:4b:8d:bb:
                    14:fb:e3:6a:23:2a:37:38:71:91:57:db:0a:38:d5:
                    da:36:77:e1:76:4b:87:13:de:ee:17:fb:8f:09:ff:
                    1e:e7:44:10:07:2f:bf:97:14:a5:4f:5c:ac:2a:1b:
                    9c:3a:53:94:d6:ff:a5:5e:9e:9a:a4:5f:bd:2f:6e:
                    41:83:e2:8d:09:fc:f8:2f:77:8f:59:a8:6c:f8:bc:
                    82:5f:9a:fc:39:55:f3:1c:d5:8c:76:63:2e:c8:7d:
                    0e:e5:5e:41:4d:70:dd:8f:e7:90:b2:cd:c5:6e:64:
                    6e:e2:e8:af:bb:ae:0f:60:17:34:0d:d5:bb:5b:8d:
                    07:31:f0:a4:96:f5:61:91:34:76:84:b8:9b:72:df:
                    73:89:4b:91:27:8b:9f:a0:1e:25:87:7b:6d:bd:c7:
                    13:a0:3b:e3:7b:39:56:50:ff:96:df:de:d2:ca:f6:
                    73:08:43:fc:87:39:ba:f1:92:44:84:13:55:d3:7c:
                    3a:d8:05:21:cb:04:f7:b0:d9:cf:a1:f9:56:53:54:
                    6a:95:63:fc:42:3b:da:fd:6b:60:01:56:1d:71:3e:
                    d3:08:f2:c7:a5:d6:a7:05:8e:b5:96:b2:f4:59:82:
                    48:92:f8:36:48:16:bd:87:d4:ba:4d:51:c4:74:10:
                    44:41:95:91:45:af:83:f3:71:55:1e:c2:0c:0e:58:
                    ed:8e:6a:c8:29:7c:4d:1b:30:aa:ba:34:dd:7f:48:
                    8f:c8:b0:3a:f5:2c:c8:e1:44:db:82:14:6d:b9:19:
                    51:12:93:06:e5:ec:e3:32:55:95:4c:72:d7:06:81:
                    a1:5e:51:06:e2:21:3b:2c:1c:09:9d:29:1d:84:24:
                    9f:52:4a:0f:20:dc:54:a1:63:b3:c0:a9:63:c9:a3:
                    6c:70:79
                Exponent: 65537 (0x10001)
        X509v3 extensions:
            X509v3 Subject Key Identifier: 
                98:1A:5A:CB:38:44:6A:ED:99:D6:98:04:91:EC:43:2C:EA:24:C1:99
            X509v3 Authority Key Identifier: 
                keyid:41:A7:A4:FC:C8:B4:1F:95:59:7F:D9:B1:5D:E6:20:61:28:F7:C5:85

            X509v3 Basic Constraints: critical
                CA:TRUE, pathlen:0
            X509v3 Key Usage: critical
                Digital Signature, Certificate Sign, CRL Sign
    Signature Algorithm: sha512WithRSAEncryption
         c9:6d:08:43:fc:85:d0:9a:8b:13:61:18:e9:8d:ec:e6:41:57:
         a7:10:6f:6a:da:7f:af:e0:38:f0:1e:68:4f:b0:05:4c:0a:36:
         00:00:8b:77:cd:e9:09:57:88:40:db:5c:60:0d:bc:3c:f2:b1:
         47:3a:2f:77:76:a2:bb:0e:13:5a:84:5d:7c:93:d5:c0:9f:71:
         54:ed:c4:eb:d9:72:f4:10:a7:5d:08:80:c5:74:d0:6a:cc:96:
         06:82:1b:be:87:35:98:1a:e5:70:ba:15:77:22:a1:56:dd:e1:
         23:2b:1f:b4:36:98:2c:16:fc:a1:71:ac:e7:49:55:a7:ee:8a:
         53:fa:7d:f6:b3:f8:91:04:5d:ac:6f:28:08:1f:5b:c1:ab:7c:
         3b:05:b4:78:98:e7:ee:f9:21:07:d2:9b:e8:d9:12:90:ee:70:
         78:80:46:3e:3a:94:0c:d9:06:84:af:c5:e8:8f:96:af:82:6b:
         69:20:24:e1:28:87:f5:39:d1:24:a7:b9:74:70:0c:1f:52:26:
         1d:53:66:71:e8:5c:8d:03:61:72:6c:44:f7:13:07:41:5b:0b:
         13:11:55:f7:e6:c0:1d:7e:8e:5c:0b:62:07:03:56:2b:55:2a:
         f7:3b:c7:5c:11:6b:88:27:b1:ff:9f:56:47:ad:a5:29:ac:0d:
         52:24:9f:d5:ff:c0:a4:4a:a5:64:4a:a1:ac:c4:9e:8d:2c:5d:
         33:9b:bd:35:53:34:f6:92:94:4c:0e:0c:19:52:ef:4f:19:ed:
         5c:14:51:c3:b2:f4:8d:d2:8f:55:f5:a9:50:54:71:12:c9:c1:
         3c:2e:6b:30:07:8b:4d:ce:f8:50:51:f8:a6:3d:8c:e0:aa:21:
         6d:e9:12:18:6e:9b:57:c0:d5:ab:9e:20:19:32:09:ee:18:30:
         8e:cc:98:f9:8f:a3:31:50:ec:60:b7:b1:c4:3f:76:ea:e4:49:
         e7:8e:43:00:89:c4:7c:15:1b:2d:96:94:85:32:30:c4:2e:5a:
         02:59:2c:52:bc:62:a4:de:f0:45:ee:44:f6:43:ee:b6:32:ca:
         f0:ba:c3:81:cf:12:81:a6:02:40:f4:a5:de:0e:d2:fe:1f:58:
         03:30:4f:fa:62:18:a3:24:f1:72:fe:c1:a8:43:32:1d:fd:62:
         c8:a9:f6:de:09:bf:23:f1:98:b3:96:ae:f3:10:47:5a:dc:7a:
         a4:d3:4a:ff:99:48:a6:3d:23:4f:81:a5:d6:af:d9:88:c8:05:
         30:fb:6a:91:98:98:e6:34:a2:30:0d:7f:be:79:9e:26:ca:eb:
         05:64:7e:2c:d4:eb:96:45:ee:5b:34:9b:b6:1f:52:28:e6:56:
         06:9e:8e:e9:a4:f4:85:40
-----BEGIN CERTIFICATE-----
MIIFyDCCA7CgAwIBAgICEAAwDQYJKoZIhvcNAQENBQAweTELMAkGA1UEBhMCVVMx
EjAQBgNVBAgMCU1pbm5lc290YTEUMBIGA1UEBwwLTWlubmVhcG9saXMxGTAXBgNV
BAoMEENvc29jayAmIERldmljZXMxJTAjBgNVBAMMHENvc29jayBUZXN0IFJvb3Qg
Q2VydGlmaWNhdGUwHhcNMjAxMjAzMTg0ODM2WhcNMzAxMjAzMTg0ODM2WjBtMQsw
CQYDVQQGEwJVUzESMBAGA1UECAwJTWlubmVzb3RhMRkwFwYDVQQKDBBDb3NvY2sg
JiBEZXZpY2VzMS8wLQYDVQQDDCZDb3NvY2sgVGVzdCBJbnRlcm1lZGlhdGUgQ2Vy
dGlmaWNhdGUgMTCCAiIwDQYJKoZIhvcNAQEBBQADggIPADCCAgoCggIBAPGPxDlB
7C0GDaDsSJxQEXMjdyH4cW42L5AnEWqMduPK7aKJXGLTtZQRTcS+gFkBBDBhBFYg
AcdxDNTYH/GLqcY/6m8j6YDGhrdbjoELPxW6+K42b4o1mQFGENpB6fxjpjhn/eFf
EeE3J5usQU41UJX+pVPyH8i5tmcQ6L+atSzDHQvemUUKy5mrGEwOtQFxJ98A2BUm
N/JsozL+xI1K/fwEpJZPETiVD66X1lUevrsrS427FPvjaiMqNzhxkVfbCjjV2jZ3
4XZLhxPe7hf7jwn/HudEEAcvv5cUpU9crCobnDpTlNb/pV6emqRfvS9uQYPijQn8
+C93j1mobPi8gl+a/DlV8xzVjHZjLsh9DuVeQU1w3Y/nkLLNxW5kbuLor7uuD2AX
NA3Vu1uNBzHwpJb1YZE0doS4m3Lfc4lLkSeLn6AeJYd7bb3HE6A743s5VlD/lt/e
0sr2cwhD/Ic5uvGSRIQTVdN8OtgFIcsE97DZz6H5VlNUapVj/EI72v1rYAFWHXE+
0wjyx6XWpwWOtZay9FmCSJL4NkgWvYfUuk1RxHQQREGVkUWvg/NxVR7CDA5Y7Y5q
yCl8TRswqro03X9Ij8iwOvUsyOFE24IUbbkZURKTBuXs4zJVlUxy1waBoV5RBuIh
OywcCZ0pHYQkn1JKDyDcVKFjs8CpY8mjbHB5AgMBAAGjZjBkMB0GA1UdDgQWBBSY
GlrLOERq7ZnWmASR7EMs6iTBmTAfBgNVHSMEGDAWgBRBp6T8yLQflVl/2bFd5iBh
KPfFhTASBgNVHRMBAf8ECDAGAQH/AgEAMA4GA1UdDwEB/wQEAwIBhjANBgkqhkiG
9w0BAQ0FAAOCAgEAyW0IQ/yF0JqLE2EY6Y3s5kFXpxBvatp/r+A48B5oT7AFTAo2
AACLd83pCVeIQNtcYA28PPKxRzovd3aiuw4TWoRdfJPVwJ9xVO3E69ly9BCnXQiA
xXTQasyWBoIbvoc1mBrlcLoVdyKhVt3hIysftDaYLBb8oXGs50lVp+6KU/p99rP4
kQRdrG8oCB9bwat8OwW0eJjn7vkhB9Kb6NkSkO5weIBGPjqUDNkGhK/F6I+Wr4Jr
aSAk4SiH9TnRJKe5dHAMH1ImHVNmcehcjQNhcmxE9xMHQVsLExFV9+bAHX6OXAti
BwNWK1Uq9zvHXBFriCex/59WR62lKawNUiSf1f/ApEqlZEqhrMSejSxdM5u9NVM0
9pKUTA4MGVLvTxntXBRRw7L0jdKPVfWpUFRxEsnBPC5rMAeLTc74UFH4pj2M4Koh
bekSGG6bV8DVq54gGTIJ7hgwjsyY+Y+jMVDsYLexxD926uRJ545DAInEfBUbLZaU
hTIwxC5aAlksUrxipN7wRe5E9kPutjLK8LrDgc8SgaYCQPSl3g7S/h9YAzBP+mIY
oyTxcv7BqEMyHf1iyKn23gm/I/GYs5au8xBHWtx6pNNK/5lIpj0jT4Gl1q/ZiMgF
MPtqkZiY5jSiMA1/vnmeJsrrBWR+LNTrlkXuWzSbth9SKOZWBp6O6aT0hUA=
-----END CERTIFICATE-----
