-----BEGIN CERTIFICATE-----
MIIGVDCCBDygAwIBAgICEAUwDQYJKoZIhvcNAQENBQAwbTELMAkGA1UEBhMCVVMx
EjAQBgNVBAgMCU1pbm5lc290YTEZMBcGA1UECgwQQ29zb2NrICYgRGV2aWNlczEv
MC0GA1UEAwwmQ29zb2NrIFRlc3QgSW50ZXJtZWRpYXRlIENlcnRpZmljYXRlIDIw
HhcNMjAxMjAzMTg0ODM2WhcNMzAxMjAzMTg0ODM2WjBlMQswCQYDVQQGEwJVUzES
MBAGA1UECAwJTWlubmVzb3RhMRkwFwYDVQQKDBBDb3NvY2sgJiBEZXZpY2VzMScw
JQYDVQQDDB5Db3NvY2sgVGVzdCBMZWFmIENlcnRpZmljYXRlIEQwggIiMA0GCSqG
SIb3DQEBAQUAA4ICDwAwggIKAoICAQDIOfQcX0/Htcg4+ILp1R8Ns/IxJNIn7F/X
c+xNmPH2Mfdu4o+1jC/7HghvB5hr8eNrtUQT3vvzV6UroyJsklAVelyAp41jx+z4
T75xGh7rZBW4agV55TvQZAh318LL81ncuhL7JjTFx87/Knf677DJo3AFi6LMpxHD
DYDuzx6He9nxQfMDAT1JCuY2kPCdgF8ZhNlGbyCg+Gffjya6FM87THg3TIaneDgW
op5fQpP8gtl8yOPrFMVYiXUwnGg9ykZ+A90bkt1VoUUVFM+j54C2HXw/hoYAsW8Q
c4ze4nbTqyRQguLEGog00SDvlsYfYchzHt8jBWg8YKkjTY8ihbHEN0UwgDzgwiYg
1SLp0azDv0IZDxoNumodWZCaEzAYv0adaCdfwt0RihNKRleBa38wwWc/tKssdGBy
PqUSaYacn70yQxjQllGbmQ+hG39UeiFaxDCO1KtBnCPHUZDW6RdtrHmSo/1F5cpu
Iis6C04FWHikciq9UsbFjIAMc6U5QW3XKsdIon1Q45C3CCtL4tLisoSG4sIBEcg5
nilCPi7QF/cWq3+q5Y7ebl5GGMFvA9nlfU2x8L7eDLX1uo2VpEuI9HvyLSH/8lTe
YFDyoHXveKn68HmVv8JHZ/vK2T+d4M1WqEXTlk8FCwWLreGoSQmfMd1zlJ1nIijX
QzEx85ieswIDAQABo4IBBDCCAQAwCQYDVR0TBAIwADAdBgNVHQ4EFgQUD8MzPWm8
yZEf+yWewDKX0CnfZSkwgaQGA1UdIwSBnDCBmYAUAokUICQer1P/1QHHkkXZopd5
QaahfaR7MHkxCzAJBgNVBAYTAlVTMRIwEAYDVQQIDAlNaW5uZXNvdGExFDASBgNV
BAcMC01pbm5lYXBvbGlzMRkwFwYDVQQKDBBDb3NvY2sgJiBEZXZpY2VzMSUwIwYD
VQQDDBxDb3NvY2sgVGVzdCBSb290IENlcnRpZmljYXRlggIQATAOBgNVHQ8BAf8E
BAMCBeAwHQYDVR0lBBYwFAYIKwYBBQUHAwIGCCsGAQUFBwMBMA0GCSqGSIb3DQEB
DQUAA4ICAQCDN5NQ8xMy1Cbki8CUFJlvQBae0cjoUgiWAq0zqhE6PaTEPBGwsqBO
X2QW7Z9tDjRjB5ONH+fKY3G7xwkGegsUsJtgfFu3jFdDcR9jTKrBdwQqilZAyGSZ
JnvhYwkx0dmoSdeMtFnQ92sS8nNhC5NKkFyKKqtCkcgeovgODtBej96uwRa85cPR
pmjligauD6uyCeM49w9rLc0xgWa+hPa6IKnhPpkBoUQsWO4a2IM9SVOB8TEPDbGe
RiakOCxVhuj5e5xDZuNRguKWH4iR6kbjkAjsPHEQT1YFSt5gsHy/mzY3bThBAQvb
zMdoOljpXEdNtrfKR6rYnbype3t4HvW9d1oTQk97HugAZI+KdeNXm0UtaR3VZd0a
CC9u8OtpjfbhabcbSNRW7RQ5vz8NqO0pN8v4zOwPS2Bj2XvXNBChfgnkcDX2o984
G9zseSSLWRCQmAz/glTaB8g8WASRqlAJAmQaygkpt1HQrttstX4jSljoalMpIh7b
A41cmoFWfhaiXsMpYe4vv5ht/TNXjii+EJu3BccBvfMyYGrUMp3dXbjOHNqsgQJA
RWgRL0TnAiYtRhcYUeb9Gsfg4nLxZUFDiW1w+CPW9NMxSTea5MUWKoxF5w0qlnXd
oDzQziRethTPFAvPzQfRzScQMJFK9EYRngv7VLi0Uu4BIhnob5oHmg==
-----END CERTIFICATE-----
Certificate:
    Data:
        Version: 3 (0x2)
        Serial Number: 4097 (0x1001)
        Signature Algorithm: sha512WithRSAEncryption
        Issuer: C=US, ST=Minnesota, L=Minneapolis, O=Cosock & Devices, CN=Cosock Test Root Certificate
        Validity
            Not Before: Dec  3 18:48:36 2020 GMT
            Not After : Dec  3 18:48:36 2030 GMT
        Subject: C=US, ST=Minnesota, O=Cosock & Devices, CN=Cosock Test Intermediate Certificate 2
        Subject Public Key Info:
            Public Key Algorithm: rsaEncryption
                RSA Public-Key: (4096 bit)
                Modulus:
                    00:d8:23:38:89:f6:8e:0d:ba:22:7a:74:69:6e:a4:
                    c2:72:48:bc:09:03:a6:f0:41:e9:36:97:78:17:cd:
                    c6:44:01:fb:29:c3:9b:44:44:d3:09:60:8d:fb:fb:
                    bd:79:07:2d:3c:87:d5:24:86:e0:c3:fd:13:f3:61:
                    4b:cc:5a:07:0b:ec:a0:61:d4:78:d0:02:9a:a0:56:
                    2c:9e:c7:91:a8:83:8c:21:90:46:30:d9:b8:4f:15:
                    f5:e7:13:45:60:b5:b3:cf:6f:29:82:ef:ee:5a:48:
                    a0:95:83:dc:80:d2:d5:03:13:77:23:da:d5:29:de:
                    47:1b:32:33:e4:1a:de:0f:d6:6f:42:6d:69:20:b1:
                    0f:06:52:e1:b8:a5:22:2e:3b:05:00:7e:c6:11:a9:
                    65:5e:f7:48:33:4f:9b:66:90:e3:59:68:3f:13:c2:
                    d7:2f:81:b0:5a:57:12:71:3e:de:3e:d5:44:b0:6b:
                    2c:80:0c:46:95:28:7d:db:fc:91:19:79:6f:d0:34:
                    f8:42:0f:50:80:10:1a:18:d9:c8:54:9c:bd:ad:9d:
                    55:04:da:d7:b6:6f:4f:a3:31:6a:00:c4:e7:99:40:
                    91:ec:c5:75:1a:03:dc:2f:64:76:9a:61:52:09:8b:
                    89:f3:54:4a:46:2c:49:a0:14:25:75:7c:66:f1:0c:
                    cf:db:35:d4:a2:fa:c5:00:76:0c:5b:f9:81:2c:5e:
                    84:c1:c5:67:ab:86:24:58:62:bd:f0:99:57:3d:61:
                    04:11:2c:8c:fb:04:27:3b:36:9c:c9:1d:70:e3:27:
                    57:be:59:d7:af:e9:5f:d9:f7:90:54:18:b7:92:2b:
                    d4:e1:c7:c4:2f:1b:cc:f5:e3:02:1d:86:8e:d5:c5:
                    50:eb:6e:00:11:e7:20:9b:c9:b7:92:21:ca:08:25:
                    f2:88:1a:9d:8f:03:f0:18:a6:1e:6d:3c:51:4c:b7:
                    c7:9f:4f:c3:ac:4a:05:52:38:d6:2a:f3:6c:45:62:
                    03:5f:24:c7:76:3a:05:3e:83:34:63:c1:db:59:5f:
                    8a:d5:d0:24:75:93:ff:13:51:a2:89:c1:cd:df:b8:
                    f5:89:cf:18:46:78:ea:76:36:f1:cd:82:1a:55:9a:
                    f3:e0:d5:19:3f:02:11:1b:3f:72:91:71:e0:f6:fc:
                    e8:d5:af:d5:70:2e:39:fa:0b:86:ff:9b:f1:b9:65:
                    ab:d3:32:f9:5f:c7:18:55:eb:2e:dc:15:c0:71:64:
                    80:9a:42:11:1c:81:c3:b1:ec:eb:26:36:d8:25:2d:
                    ae:29:cd:ea:48:1f:b2:14:0d:cd:4c:7a:dc:7c:f4:
                    c4:9c:cc:e5:0c:60:7f:47:ec:bf:69:07:56:93:19:
                    35:52:7d
                Exponent: 65537 (0x10001)
        X509v3 extensions:
            X509v3 Subject Key Identifier: 
                02:89:14:20:24:1E:AF:53:FF:D5:01:C7:92:45:D9:A2:97:79:41:A6
            X509v3 Authority Key Identifier: 
                keyid:41:A7:A4:FC:C8:B4:1F:95:59:7F:D9:B1:5D:E6:20:61:28:F7:C5:85

            X509v3 Basic Constraints: critical
                CA:TRUE, pathlen:0
            X509v3 Key Usage: critical
                Digital Signature, Certificate Sign, CRL Sign
    Signature Algorithm: sha512WithRSAEncryption
         68:0b:23:fb:9d:29:52:16:f0:ed:aa:51:c8:9c:93:e5:3c:3e:
         71:07:74:8a:ad:fa:66:53:82:10:8e:7e:ab:14:1b:51:a4:9e:
         a0:d0:6e:48:b3:f3:d9:b4:61:90:ba:43:74:84:cc:f2:24:0d:
         f8:81:fa:10:8a:33:c8:e6:2e:d3:ac:18:1f:9e:c2:cb:3f:e8:
         79:1f:08:1f:92:a2:9e:bb:71:8c:8d:39:04:ca:40:1e:28:db:
         48:1a:ea:9e:e7:8d:13:85:fb:ed:ad:67:2d:0a:62:ab:ba:b2:
         83:db:2d:20:86:8e:cb:12:35:a0:db:0c:8d:38:b0:8a:0a:72:
         a6:28:d2:d9:ef:a3:a3:47:69:f8:c9:27:c5:7a:92:95:a1:50:
         d1:32:db:5c:79:d0:a0:14:20:70:2e:0d:0a:59:47:f1:cf:31:
         bd:23:9a:22:9a:a3:08:a9:ce:a8:08:a0:bc:49:0b:7e:42:4d:
         96:7f:20:f4:95:54:bf:d0:d8:4d:11:8d:50:7e:fe:26:9f:7d:
         b0:aa:ef:26:bd:a7:7c:03:59:ed:48:51:84:ba:c0:14:2c:a5:
         07:b0:cf:06:b6:3e:c4:38:bb:38:56:6c:64:27:28:dd:1a:8f:
         57:13:a8:e3:fc:2f:cf:27:f0:8a:5c:28:a3:56:fb:96:cf:5f:
         e0:86:f0:a8:9e:0a:2f:15:22:01:6b:71:e5:ee:d3:8b:87:0a:
         fb:0b:8d:f5:87:48:a5:2a:b9:fa:cb:92:18:cb:1c:5b:d4:65:
         60:e3:a4:99:1d:a9:0b:71:ae:35:a0:6e:b8:cb:73:7d:56:05:
         39:93:15:97:88:e7:b3:7b:80:b2:a5:3c:c0:07:b5:c8:67:2d:
         69:05:a8:6a:3f:75:d5:c7:10:03:a8:7d:25:1a:c8:14:5a:5d:
         03:5c:d5:b8:78:a6:71:03:7d:2c:59:12:f7:18:03:3e:5b:b0:
         e2:7a:c3:ca:30:b5:da:e7:ab:b3:71:76:d7:c6:d2:65:54:68:
         10:13:71:09:00:db:14:26:af:d9:92:31:0b:02:c2:c2:92:d3:
         66:64:54:e7:a2:7b:42:7b:a3:cc:45:d9:bb:c0:36:b8:51:51:
         66:fe:28:92:2b:f2:70:c8:fd:66:a7:c2:f8:bc:6d:ef:93:40:
         93:73:53:f2:96:d9:9d:87:0a:6f:96:0f:3d:57:6b:cc:d2:5b:
         89:22:e8:7a:fe:98:36:a1:22:6d:8d:08:4e:f2:67:45:31:9a:
         88:b8:66:eb:48:e7:22:c0:f9:c5:33:ea:2c:4d:65:2f:b8:98:
         48:f8:13:aa:ee:13:14:7d:69:fa:18:8f:56:4c:b4:47:80:e6:
         bb:2f:9e:21:fd:24:60:42
-----BEGIN CERTIFICATE-----
MIIFyDCCA7CgAwIBAgICEAEwDQYJKoZIhvcNAQENBQAweTELMAkGA1UEBhMCVVMx
EjAQBgNVBAgMCU1pbm5lc290YTEUMBIGA1UEBwwLTWlubmVhcG9saXMxGTAXBgNV
BAoMEENvc29jayAmIERldmljZXMxJTAjBgNVBAMMHENvc29jayBUZXN0IFJvb3Qg
Q2VydGlmaWNhdGUwHhcNMjAxMjAzMTg0ODM2WhcNMzAxMjAzMTg0ODM2WjBtMQsw
CQYDVQQGEwJVUzESMBAGA1UECAwJTWlubmVzb3RhMRkwFwYDVQQKDBBDb3NvY2sg
JiBEZXZpY2VzMS8wLQYDVQQDDCZDb3NvY2sgVGVzdCBJbnRlcm1lZGlhdGUgQ2Vy
dGlmaWNhdGUgMjCCAiIwDQYJKoZIhvcNAQEBBQADggIPADCCAgoCggIBANgjOIn2
jg26Inp0aW6kwnJIvAkDpvBB6TaXeBfNxkQB+ynDm0RE0wlgjfv7vXkHLTyH1SSG
4MP9E/NhS8xaBwvsoGHUeNACmqBWLJ7HkaiDjCGQRjDZuE8V9ecTRWC1s89vKYLv
7lpIoJWD3IDS1QMTdyPa1SneRxsyM+Qa3g/Wb0JtaSCxDwZS4bilIi47BQB+xhGp
ZV73SDNPm2aQ41loPxPC1y+BsFpXEnE+3j7VRLBrLIAMRpUofdv8kRl5b9A0+EIP
UIAQGhjZyFScva2dVQTa17ZvT6MxagDE55lAkezFdRoD3C9kdpphUgmLifNUSkYs
SaAUJXV8ZvEMz9s11KL6xQB2DFv5gSxehMHFZ6uGJFhivfCZVz1hBBEsjPsEJzs2
nMkdcOMnV75Z16/pX9n3kFQYt5Ir1OHHxC8bzPXjAh2GjtXFUOtuABHnIJvJt5Ih
yggl8oganY8D8BimHm08UUy3x59Pw6xKBVI41irzbEViA18kx3Y6BT6DNGPB21lf
itXQJHWT/xNRoonBzd+49YnPGEZ46nY28c2CGlWa8+DVGT8CERs/cpFx4Pb86NWv
1XAuOfoLhv+b8bllq9My+V/HGFXrLtwVwHFkgJpCERyBw7Hs6yY22CUtrinN6kgf
shQNzUx63Hz0xJzM5Qxgf0fsv2kHVpMZNVJ9AgMBAAGjZjBkMB0GA1UdDgQWBBQC
iRQgJB6vU//VAceSRdmil3lBpjAfBgNVHSMEGDAWgBRBp6T8yLQflVl/2bFd5iBh
KPfFhTASBgNVHRMBAf8ECDAGAQH/AgEAMA4GA1UdDwEB/wQEAwIBhjANBgkqhkiG
9w0BAQ0FAAOCAgEAaAsj+50pUhbw7apRyJyT5Tw+cQd0iq36ZlOCEI5+qxQbUaSe
oNBuSLPz2bRhkLpDdITM8iQN+IH6EIozyOYu06wYH57Cyz/oeR8IH5KinrtxjI05
BMpAHijbSBrqnueNE4X77a1nLQpiq7qyg9stIIaOyxI1oNsMjTiwigpypijS2e+j
o0dp+MknxXqSlaFQ0TLbXHnQoBQgcC4NCllH8c8xvSOaIpqjCKnOqAigvEkLfkJN
ln8g9JVUv9DYTRGNUH7+Jp99sKrvJr2nfANZ7UhRhLrAFCylB7DPBrY+xDi7OFZs
ZCco3RqPVxOo4/wvzyfwilwoo1b7ls9f4IbwqJ4KLxUiAWtx5e7Ti4cK+wuN9YdI
pSq5+suSGMscW9RlYOOkmR2pC3GuNaBuuMtzfVYFOZMVl4jns3uAsqU8wAe1yGct
aQWoaj911ccQA6h9JRrIFFpdA1zVuHimcQN9LFkS9xgDPluw4nrDyjC12uers3F2
18bSZVRoEBNxCQDbFCav2ZIxCwLCwpLTZmRU56J7QnujzEXZu8A2uFFRZv4okivy
cMj9ZqfC+Lxt75NAk3NT8pbZnYcKb5YPPVdrzNJbiSLoev6YNqEibY0ITvJnRTGa
iLhm60jnIsD5xTPqLE1lL7iYSPgTqu4TFH1p+hiPVky0R4Dmuy+eIf0kYEI=
-----END CERTIFICATE-----
